target datalayout = "e-m:e-p270:32:32-p271:32:32-p272:64:64-i64:64-i128:128-f80:128-n8:16:32:64-S128"
target triple = "x86_64-pc-linux-gnu"

%struct.slurm_conf_t = type { i64, ptr, i16, ptr, ptr, ptr, ptr, ptr, i16, ptr, ptr, ptr, ptr, ptr, ptr, ptr, i16, ptr, ptr, ptr, ptr, i16, ptr, ptr, ptr, i64, ptr, ptr, ptr, ptr, i16, ptr, ptr, i16, i32, ptr, i32, ptr, i32, i32, ptr, ptr, i64, i64, ptr, i16, i16, ptr, i32, i32, ptr, i32, ptr, i32, i16, i16, i16, ptr, i16, i16, ptr, ptr, i32, i16, i16, ptr, i32, i16, ptr, ptr, ptr, ptr, i16, ptr, ptr, ptr, ptr, i32, ptr, ptr, ptr, ptr, i16, i16, ptr, i32, i32, i32, i16, i16, ptr, ptr, i16, ptr, ptr, i32, i32, i32, i32, i32, i64, i32, i32, i16, ptr, ptr, i32, ptr, ptr, ptr, i16, i32, ptr, ptr, i16, ptr, ptr, i32, i16, ptr, ptr, ptr, ptr, i32, i32, i16, i16, i32, ptr, i16, ptr, i32, i32, i32, i32, i32, i32, ptr, i16, ptr, ptr, i32, i16, ptr, i32, i16, i16, ptr, ptr, ptr, i16, ptr, ptr, ptr, ptr, i16, i16, ptr, i16, ptr, i16, ptr, i16, ptr, i16, ptr, ptr, ptr, ptr, i16, ptr, ptr, ptr, i32, ptr, i32, ptr, ptr, i16, ptr, ptr, i32, i16, ptr, ptr, i16, i16, ptr, i16, ptr, ptr, ptr, i32, ptr, i16, i16, ptr, ptr, ptr, ptr, ptr, ptr, ptr, ptr, i16, i32, i16, ptr, ptr, ptr, ptr, i32, ptr, ptr, ptr, i16, ptr, ptr, ptr, i16, ptr, i16, ptr, i16, i16, ptr }
%struct.acct_gather_energy = type { i32, i64, i64, i32, i64, i64, i64 }

@plugin_type = dso_local constant [31 x i8] c"acct_gather_energy/pm_counters\00", align 16
@_get_joules_task.readings = internal global i32 0, align 4
@slurm_conf = external global %struct.slurm_conf_t, align 8
@.str.4 = private unnamed_addr constant [92 x i8] c"%s: %s: ENERGY: %lu Joules consumed over last %ld secs. Currently at %u watts, ave watts %u\00", align 1
@__func__._get_joules_task = private unnamed_addr constant [17 x i8] c"_get_joules_task\00", align 1

; Function Attrs: nounwind uwtable
define internal void @_get_joules_task(ptr noundef %0) #0 {
  %2 = alloca ptr, align 8
  %3 = alloca i64, align 8
  %4 = alloca i64, align 8
  %5 = alloca i32, align 4
  %6 = alloca i64, align 8
  %7 = alloca i32, align 4
  store ptr %0, ptr %2, align 8
  call void @llvm.lifetime.start.p0(i64 8, ptr %3) #5
  call void @llvm.lifetime.start.p0(i64 8, ptr %4) #5
  store i64 0, ptr %4, align 8
  call void @llvm.lifetime.start.p0(i64 4, ptr %5) #5
  call void @llvm.lifetime.start.p0(i64 8, ptr %6) #5
  %8 = load ptr, ptr %2, align 8
  %9 = getelementptr inbounds nuw %struct.acct_gather_energy, ptr %8, i32 0, i32 3
  %10 = load i32, ptr %9, align 8
  %11 = icmp eq i32 %10, -2
  br i1 %11, label %12, label %13

12:                                               ; preds = %1
  store i32 1, ptr %7, align 4
  br label %98

13:                                               ; preds = %1
  %14 = call i64 @time(ptr noundef null) #5
  store i64 %14, ptr %6, align 8
  %15 = call i64 @_get_latest_stats(i32 noundef 0)
  store i64 %15, ptr %3, align 8
  %16 = call i64 @_get_latest_stats(i32 noundef 1)
  %17 = trunc i64 %16 to i32
  store i32 %17, ptr %5, align 4
  %18 = load ptr, ptr %2, align 8
  %19 = getelementptr inbounds nuw %struct.acct_gather_energy, ptr %18, i32 0, i32 4
  %20 = load i64, ptr %19, align 8
  %21 = icmp ne i64 %20, 0
  br i1 %21, label %22, label %47

22:                                               ; preds = %13
  %23 = load i64, ptr %3, align 8
  %24 = load ptr, ptr %2, align 8
  %25 = getelementptr inbounds nuw %struct.acct_gather_energy, ptr %24, i32 0, i32 4
  %26 = load i64, ptr %25, align 8
  %27 = sub i64 %23, %26
  store i64 %27, ptr %4, align 8
  %28 = load i64, ptr %4, align 8
  %29 = load ptr, ptr %2, align 8
  %30 = getelementptr inbounds nuw %struct.acct_gather_energy, ptr %29, i32 0, i32 2
  %31 = load i64, ptr %30, align 8
  %32 = add i64 %31, %28
  store i64 %32, ptr %30, align 8
  %33 = load ptr, ptr %2, align 8
  %34 = getelementptr inbounds nuw %struct.acct_gather_energy, ptr %33, i32 0, i32 0
  %35 = load i32, ptr %34, align 8
  %36 = load i32, ptr @_get_joules_task.readings, align 4
  %37 = mul i32 %35, %36
  %38 = load ptr, ptr %2, align 8
  %39 = getelementptr inbounds nuw %struct.acct_gather_energy, ptr %38, i32 0, i32 3
  %40 = load i32, ptr %39, align 8
  %41 = add i32 %37, %40
  %42 = load i32, ptr @_get_joules_task.readings, align 4
  %43 = add i32 %42, 1
  %44 = udiv i32 %41, %43
  %45 = load ptr, ptr %2, align 8
  %46 = getelementptr inbounds nuw %struct.acct_gather_energy, ptr %45, i32 0, i32 0
  store i32 %44, ptr %46, align 8
  br label %53

47:                                               ; preds = %13
  %48 = load i64, ptr %3, align 8
  %49 = load ptr, ptr %2, align 8
  %50 = getelementptr inbounds nuw %struct.acct_gather_energy, ptr %49, i32 0, i32 1
  store i64 %48, ptr %50, align 8
  %51 = load ptr, ptr %2, align 8
  %52 = getelementptr inbounds nuw %struct.acct_gather_energy, ptr %51, i32 0, i32 0
  store i32 0, ptr %52, align 8
  br label %53

53:                                               ; preds = %47, %22
  %54 = load i32, ptr @_get_joules_task.readings, align 4
  %55 = add i32 %54, 1
  store i32 %55, ptr @_get_joules_task.readings, align 4
  %56 = load i32, ptr %5, align 4
  %57 = load ptr, ptr %2, align 8
  %58 = getelementptr inbounds nuw %struct.acct_gather_energy, ptr %57, i32 0, i32 3
  store i32 %56, ptr %58, align 8
  br label %59

59:                                               ; preds = %53
  %60 = load i64, ptr getelementptr inbounds nuw (%struct.slurm_conf_t, ptr @slurm_conf, i32 0, i32 42), align 8
  %61 = and i64 %60, 262144
  %62 = icmp ne i64 %61, 0
  br i1 %62, label %63, label %89

63:                                               ; preds = %59
  br label %64

64:                                               ; preds = %63
  %65 = call i32 @slurm_get_log_level()
  %66 = icmp sge i32 %65, 4
  br i1 %66, label %67, label %86

67:                                               ; preds = %64
  %68 = load i64, ptr %4, align 8
  %69 = load ptr, ptr %2, align 8
  %70 = getelementptr inbounds nuw %struct.acct_gather_energy, ptr %69, i32 0, i32 5
  %71 = load i64, ptr %70, align 8
  %72 = icmp ne i64 %71, 0
  br i1 %72, label %73, label %79

73:                                               ; preds = %67
  %74 = load i64, ptr %6, align 8
  %75 = load ptr, ptr %2, align 8
  %76 = getelementptr inbounds nuw %struct.acct_gather_energy, ptr %75, i32 0, i32 5
  %77 = load i64, ptr %76, align 8
  %78 = sub nsw i64 %74, %77
  br label %80

79:                                               ; preds = %67
  br label %80

80:                                               ; preds = %79, %73
  %81 = phi i64 [ %78, %73 ], [ 0, %79 ]
  %82 = load i32, ptr %5, align 4
  %83 = load ptr, ptr %2, align 8
  %84 = getelementptr inbounds nuw %struct.acct_gather_energy, ptr %83, i32 0, i32 0
  %85 = load i32, ptr %84, align 8
  call void (i32, ptr, ...) @slurm_log_var(i32 noundef 4, ptr noundef @.str.4, ptr noundef @plugin_type, ptr noundef @__func__._get_joules_task, i64 noundef %68, i64 noundef %81, i32 noundef %82, i32 noundef %85)
  br label %86

86:                                               ; preds = %80, %64
  br label %87

87:                                               ; preds = %86
  br label %88

88:                                               ; preds = %87
  br label %89

89:                                               ; preds = %88, %59
  br label %90

90:                                               ; preds = %89
  br label %91

91:                                               ; preds = %90
  %92 = load i64, ptr %3, align 8
  %93 = load ptr, ptr %2, align 8
  %94 = getelementptr inbounds nuw %struct.acct_gather_energy, ptr %93, i32 0, i32 4
  store i64 %92, ptr %94, align 8
  %95 = load i64, ptr %6, align 8
  %96 = load ptr, ptr %2, align 8
  %97 = getelementptr inbounds nuw %struct.acct_gather_energy, ptr %96, i32 0, i32 5
  store i64 %95, ptr %97, align 8
  store i32 0, ptr %7, align 4
  br label %98

98:                                               ; preds = %91, %12
  call void @llvm.lifetime.end.p0(i64 8, ptr %6) #5
  call void @llvm.lifetime.end.p0(i64 4, ptr %5) #5
  call void @llvm.lifetime.end.p0(i64 8, ptr %4) #5
  call void @llvm.lifetime.end.p0(i64 8, ptr %3) #5
  %99 = load i32, ptr %7, align 4
  switch i32 %99, label %101 [
    i32 0, label %100
    i32 1, label %100
  ]

100:                                              ; preds = %98, %98
  ret void

101:                                              ; preds = %98
  unreachable
}