; Function Attrs: nounwind uwtable
define internal fastcc void @_get_joules_task(ptr noundef captures(none) %0) unnamed_addr #0 {
  %2 = getelementptr inbounds nuw i8, ptr %0, i64 24
  %3 = load i32, ptr %2, align 8
  %4 = icmp eq i32 %3, -2
  br i1 %4, label %39, label %5

5:                                                ; preds = %1
  %6 = tail call i64 @time(ptr noundef null) #8
  %7 = tail call fastcc i64 @_get_latest_stats(i32 noundef 0)
  %8 = tail call fastcc i64 @_get_latest_stats(i32 noundef 1)
  %9 = trunc i64 %8 to i32
  %10 = getelementptr inbounds nuw i8, ptr %0, i64 32
  %11 = load i64, ptr %10, align 8
  %.not = icmp eq i64 %11, 0
  br i1 %.not, label %24, label %12

12:                                               ; preds = %5
  %13 = sub i64 %7, %11
  %14 = getelementptr inbounds nuw i8, ptr %0, i64 16
  %15 = load i64, ptr %14, align 8
  %16 = add i64 %15, %13
  store i64 %16, ptr %14, align 8
  %17 = load i32, ptr %0, align 8
  %18 = load i32, ptr @_get_joules_task.readings, align 4
  %19 = mul i32 %18, %17
  %20 = load i32, ptr %2, align 8
  %21 = add i32 %19, %20
  %22 = add i32 %18, 1
  %23 = udiv i32 %21, %22
  br label %26

24:                                               ; preds = %5
  %25 = getelementptr inbounds nuw i8, ptr %0, i64 8
  store i64 %7, ptr %25, align 8
  %.pre = load i32, ptr @_get_joules_task.readings, align 4
  %.pre27 = add i32 %.pre, 1
  br label %26

26:                                               ; preds = %24, %12
  %.pre-phi = phi i32 [ %.pre27, %24 ], [ %22, %12 ]
  %storemerge = phi i32 [ 0, %24 ], [ %23, %12 ]
  %.0 = phi i64 [ 0, %24 ], [ %13, %12 ]
  store i32 %storemerge, ptr %0, align 8
  store i32 %.pre-phi, ptr @_get_joules_task.readings, align 4
  store i32 %9, ptr %2, align 8
  %27 = load i64, ptr getelementptr inbounds nuw (i8, ptr @slurm_conf, i64 320), align 8
  %28 = and i64 %27, 262144
  %.not25 = icmp eq i64 %28, 0
  br i1 %.not25, label %37, label %29

29:                                               ; preds = %26
  %30 = tail call i32 @slurm_get_log_level() #8
  %31 = icmp sgt i32 %30, 3
  br i1 %31, label %32, label %37

32:                                               ; preds = %29
  %33 = getelementptr inbounds nuw i8, ptr %0, i64 40
  %34 = load i64, ptr %33, align 8
  %.not26 = icmp eq i64 %34, 0
  %35 = sub nsw i64 %6, %34
  %spec.select = select i1 %.not26, i64 0, i64 %35
  %36 = load i32, ptr %0, align 8
  tail call void (i32, ptr, ...) @slurm_log_var(i32 noundef 4, ptr noundef nonnull @.str.4, ptr noundef nonnull @plugin_type, ptr noundef nonnull @__func__._get_joules_task, i64 noundef %.0, i64 noundef %spec.select, i32 noundef %9, i32 noundef %36) #8
  br label %37

37:                                               ; preds = %29, %32, %26
  store i64 %7, ptr %10, align 8
  %38 = getelementptr inbounds nuw i8, ptr %0, i64 40
  store i64 %6, ptr %38, align 8
  br label %39

39:                                               ; preds = %1, %37
  ret void
}